Certificate:
    Data:
        Version: 3 (0x2)
        Serial Number: 1048580 (0x100004)
    Signature Algorithm: sha256WithRSAEncryption
        Issuer: C=US, ST=California, L=San Francisco, O=Mocana Corporation, OU=Engineering, CN=ssltest.mocana.com/emailAddress=iot@mocana.com
        Validity
            Not Before: Mar 11 17:49:51 2016 GMT
            Not After : Jul 28 17:49:51 2043 GMT
        Subject: C=US, ST=California, O=Mocana, CN=Intermediate2_1
        Subject Public Key Info:
            Public Key Algorithm: rsaEncryption
                Public-Key: (2048 bit)
                Modulus:
                    00:9f:f4:f5:19:7a:d7:b5:43:04:67:11:98:49:f3:
                    6d:5d:0c:ea:4e:5f:3b:97:06:79:21:25:f9:93:59:
                    eb:07:30:df:e6:d8:52:3d:e9:f1:bd:2d:a6:7e:a3:
                    2a:2b:95:fc:0a:76:9e:ee:81:aa:35:80:4f:cd:7a:
                    a2:21:4a:05:5a:8e:a8:3e:7d:c5:2d:4c:a6:a2:aa:
                    5c:6c:2f:97:ed:35:6a:93:dd:95:a8:d5:52:32:5a:
                    fa:06:cb:a3:bd:ca:34:2e:35:1c:c2:d1:26:7e:8f:
                    6f:5d:42:be:4f:36:b3:e9:af:69:7d:70:c5:1a:b8:
                    fe:07:b8:1d:91:0c:40:42:fc:ba:57:2f:90:cd:a5:
                    49:e3:a4:c5:57:2f:cd:a8:74:1c:7a:42:80:11:73:
                    f2:d8:79:d6:ac:e6:9a:46:23:b2:cc:03:f1:23:b0:
                    33:28:0e:27:be:ed:e2:35:aa:74:01:bf:a7:2e:86:
                    79:c4:5f:b8:7b:15:a7:c3:a9:8c:ec:a0:00:fa:af:
                    83:d8:3f:17:2a:b3:d9:56:86:22:6a:ac:bf:0a:60:
                    cf:f7:b9:3a:2a:ab:a2:71:86:22:97:df:86:11:a1:
                    2c:b7:ff:73:1d:01:77:20:ae:86:4d:2f:c6:ed:b9:
                    65:6f:7a:25:83:9a:3c:c2:4b:35:e4:dd:69:d0:97:
                    58:ff
                Exponent: 65537 (0x10001)
        X509v3 extensions:
            X509v3 Subject Key Identifier: 
                47:F4:38:25:2B:B7:0C:E2:12:D3:4A:3A:39:94:24:E1:D2:0E:9E:2A
            X509v3 Authority Key Identifier: 
                keyid:D0:6D:14:0B:E6:01:2D:E2:A3:65:D5:2A:90:DA:2E:5E:E7:E4:66:28
                DirName:/C=US/ST=California/L=San Francisco/O=Mocana Corporation/OU=Engineering/CN=ssltest.mocana.com/emailAddress=iot@mocana.com
                serial:80:90:A8:50:23:47:0A:2F

            X509v3 Basic Constraints: 
                CA:TRUE, pathlen:1
            X509v3 Key Usage: 
                Digital Signature, Key Encipherment, Certificate Sign, CRL Sign
            X509v3 Subject Alternative Name: 
                DNS:v3_ca.mocana.com
            X509v3 CRL Distribution Points: 

                Full Name:
                  URI:http://127.0.0.1:9000/mocana.crl

    Signature Algorithm: sha256WithRSAEncryption
         a7:f7:b0:dd:d2:24:84:64:8f:68:d1:05:93:6f:64:14:56:7c:
         2a:6c:02:4f:3a:72:74:18:f8:07:d3:87:5a:b5:10:4d:1c:98:
         de:92:18:37:e8:20:10:72:90:ea:94:52:f8:96:58:91:06:c9:
         07:4b:40:a8:d7:ae:ab:22:74:b8:95:87:05:c1:d0:26:f7:33:
         6f:74:bd:7f:de:42:d9:38:0c:0c:f3:c0:c8:08:bb:e4:aa:19:
         b7:f8:b3:77:2a:de:c2:52:23:c5:05:b3:cc:c4:ef:14:45:70:
         bf:0c:aa:6d:7a:8d:33:2c:43:7f:9b:bf:8d:f8:5d:84:48:19:
         58:23:7a:65:85:f2:b3:d6:c8:05:9d:13:42:48:c7:83:3f:dc:
         e9:00:67:a8:49:b8:7f:d1:d0:9d:bc:a3:ed:bb:be:45:93:0c:
         60:59:62:a1:61:85:a6:6e:a7:94:83:62:23:88:25:6a:3e:9f:
         14:dd:36:74:e4:29:5b:cc:b5:c3:31:40:03:af:16:8e:9e:01:
         7c:24:ad:2e:b8:83:93:b2:ec:33:6a:eb:41:f4:d4:b6:42:73:
         03:d4:de:aa:fa:af:30:de:2a:d3:28:c0:36:d2:4c:ac:fb:ff:
         26:d6:74:93:8f:2f:81:82:ed:bd:98:b1:5a:f6:78:43:84:bc:
         bc:5e:19:40
-----BEGIN CERTIFICATE-----
MIIE6DCCA9CgAwIBAgIDEAAEMA0GCSqGSIb3DQEBCwUAMIGpMQswCQYDVQQGEwJV
UzETMBEGA1UECAwKQ2FsaWZvcm5pYTEWMBQGA1UEBwwNU2FuIEZyYW5jaXNjbzEb
MBkGA1UECgwSTW9jYW5hIENvcnBvcmF0aW9uMRQwEgYDVQQLDAtFbmdpbmVlcmlu
ZzEbMBkGA1UEAwwSc3NsdGVzdC5tb2NhbmEuY29tMR0wGwYJKoZIhvcNAQkBFg5p
b3RAbW9jYW5hLmNvbTAeFw0xNjAzMTExNzQ5NTFaFw00MzA3MjgxNzQ5NTFaME0x
CzAJBgNVBAYTAlVTMRMwEQYDVQQIDApDYWxpZm9ybmlhMQ8wDQYDVQQKDAZNb2Nh
bmExGDAWBgNVBAMMD0ludGVybWVkaWF0ZTJfMTCCASIwDQYJKoZIhvcNAQEBBQAD
ggEPADCCAQoCggEBAJ/09Rl617VDBGcRmEnzbV0M6k5fO5cGeSEl+ZNZ6wcw3+bY
Uj3p8b0tpn6jKiuV/Ap2nu6BqjWAT816oiFKBVqOqD59xS1MpqKqXGwvl+01apPd
lajVUjJa+gbLo73KNC41HMLRJn6Pb11Cvk82s+mvaX1wxRq4/ge4HZEMQEL8ulcv
kM2lSeOkxVcvzah0HHpCgBFz8th51qzmmkYjsswD8SOwMygOJ77t4jWqdAG/py6G
ecRfuHsVp8OpjOygAPqvg9g/Fyqz2VaGImqsvwpgz/e5OiqronGGIpffhhGhLLf/
cx0BdyCuhk0vxu25ZW96JYOaPMJLNeTdadCXWP8CAwEAAaOCAXIwggFuMB0GA1Ud
DgQWBBRH9DglK7cM4hLTSjo5lCTh0g6eKjCB3gYDVR0jBIHWMIHTgBTQbRQL5gEt
4qNl1SqQ2i5e5+RmKKGBr6SBrDCBqTELMAkGA1UEBhMCVVMxEzARBgNVBAgMCkNh
bGlmb3JuaWExFjAUBgNVBAcMDVNhbiBGcmFuY2lzY28xGzAZBgNVBAoMEk1vY2Fu
YSBDb3Jwb3JhdGlvbjEUMBIGA1UECwwLRW5naW5lZXJpbmcxGzAZBgNVBAMMEnNz
bHRlc3QubW9jYW5hLmNvbTEdMBsGCSqGSIb3DQEJARYOaW90QG1vY2FuYS5jb22C
CQCAkKhQI0cKLzAPBgNVHRMECDAGAQH/AgEBMAsGA1UdDwQEAwIBpjAbBgNVHREE
FDASghB2M19jYS5tb2NhbmEuY29tMDEGA1UdHwQqMCgwJqAkoCKGIGh0dHA6Ly8x
MjcuMC4wLjE6OTAwMC9tb2NhbmEuY3JsMA0GCSqGSIb3DQEBCwUAA4IBAQCn97Dd
0iSEZI9o0QWTb2QUVnwqbAJPOnJ0GPgH04datRBNHJjekhg36CAQcpDqlFL4lliR
BskHS0Co166rInS4lYcFwdAm9zNvdL1/3kLZOAwM88DICLvkqhm3+LN3Kt7CUiPF
BbPMxO8URXC/DKpteo0zLEN/m7+N+F2ESBlYI3plhfKz1sgFnRNCSMeDP9zpAGeo
Sbh/0dCdvKPtu75FkwxgWWKhYYWmbqeUg2IjiCVqPp8U3TZ05ClbzLXDMUADrxaO
ngF8JK0uuIOTsuwzautB9NS2QnMD1N6q+q8w3irTKMA20kys+/8m1nSTjy+Bgu29
mLFa9nhDhLy8XhlA
-----END CERTIFICATE-----
