Certificate:
    Data:
        Version: 3 (0x2)
        Serial Number: 1048579 (0x100003)
    Signature Algorithm: sha256WithRSAEncryption
        Issuer: C=US, ST=California, O=Mocana, CN=Intermediate2
        Validity
            Not Before: Mar 10 23:00:28 2016 GMT
            Not After : Jul 27 23:00:28 2043 GMT
        Subject: C=US, ST=California, O=Mocana, CN=sslchaintest.mocana.com
        Subject Public Key Info:
            Public Key Algorithm: rsaEncryption
                Public-Key: (2048 bit)
                Modulus:
                    00:e4:79:b3:07:42:97:fe:60:18:b6:e8:55:37:1c:
                    48:55:21:7e:25:88:b0:77:02:e3:d9:75:bb:b0:32:
                    ad:79:b7:90:1a:bb:2a:a6:de:d3:c5:ce:2d:2d:a2:
                    3f:a2:a6:8e:75:7f:b4:20:49:00:d3:29:d4:a6:d4:
                    d3:3a:e1:0b:4d:c0:3b:9e:0d:00:cf:80:5d:46:0e:
                    d3:48:57:ba:8f:a7:c3:47:09:c5:29:32:c6:cf:11:
                    58:09:f1:17:59:e9:ea:93:39:33:e9:65:21:a3:eb:
                    35:62:2f:28:aa:6b:a3:38:20:d6:92:fa:43:0b:89:
                    8a:95:7d:6b:13:1e:d4:29:ba:31:65:f2:2c:f4:a1:
                    17:4a:ce:0f:8b:9c:2b:54:15:fd:3e:f6:9e:f3:5d:
                    58:37:07:ef:75:bd:a3:30:36:5a:c8:c8:ba:38:a6:
                    f7:32:20:f5:cc:f7:9e:9d:26:81:15:58:99:03:78:
                    3d:2b:63:b6:0a:aa:db:a7:e0:62:dd:f6:16:cc:33:
                    4c:8b:9c:41:f8:4b:69:a9:70:96:0b:93:fa:bb:17:
                    38:89:bc:b9:d3:69:63:44:c0:c9:07:47:c9:46:7a:
                    8c:d4:89:72:dc:a0:5f:f4:91:a1:ab:75:fb:81:60:
                    b5:a6:25:08:af:a9:b6:77:bb:b3:b3:9d:63:1e:8a:
                    b8:03
                Exponent: 65537 (0x10001)
        X509v3 extensions:
            X509v3 Subject Key Identifier: 
                A3:67:C3:24:EB:98:49:E1:FF:58:9A:32:48:E9:3B:D8:7E:A8:26:39
            X509v3 Authority Key Identifier: 
                keyid:5C:DF:3B:5E:5D:A0:05:8A:19:74:88:39:95:AF:44:C9:0B:48:8E:80
                DirName:/C=US/ST=California/O=Mocana/CN=Intermediate1
                serial:10:00:02

            X509v3 Basic Constraints: 
                CA:FALSE
            X509v3 Key Usage: 
                Digital Signature, Key Encipherment, Certificate Sign, CRL Sign
            X509v3 Subject Alternative Name: 
                DNS:v3_leaf.mocana.com
            X509v3 CRL Distribution Points: 

                Full Name:
                  URI:http://127.0.0.1:9000/mocana.crl

    Signature Algorithm: sha256WithRSAEncryption
         28:ce:e2:93:9c:ad:40:eb:a1:76:ec:67:74:e3:af:eb:d7:6e:
         33:fc:30:9b:cd:be:41:b2:dc:cd:3d:66:e1:3b:c0:b1:50:e7:
         2e:c7:ae:d7:26:7a:4f:00:17:4c:a3:4f:f0:2a:8d:97:01:6d:
         ec:e1:57:e3:31:7d:06:d8:df:a6:ba:bb:23:c8:3e:ec:03:0b:
         6a:4a:67:56:72:0d:81:6c:aa:b0:5e:66:fb:69:02:ae:0f:83:
         5d:10:58:67:18:be:19:1c:1e:4e:eb:9a:ea:f6:90:31:9a:54:
         7b:1c:80:00:fc:ab:93:71:fa:6f:96:5e:e8:d3:b6:9c:34:52:
         82:a5:83:cf:8a:60:78:d4:60:5e:8a:c2:3c:d5:4e:e4:ce:37:
         fe:e4:60:dc:fd:bf:be:54:47:7a:eb:22:4f:f8:ef:68:7d:f7:
         6e:2a:20:ee:fe:69:1b:6f:2f:fb:5f:b8:cd:34:4c:59:89:ca:
         72:09:b1:59:ad:47:7a:e0:32:a0:8b:58:c3:68:db:20:29:25:
         e1:92:83:9e:82:72:06:82:bd:ac:5d:aa:3f:bb:c0:f3:c7:ed:
         f8:c7:28:fe:43:70:a1:8f:9b:12:af:59:04:44:73:82:ee:4f:
         9f:78:72:a7:89:8c:5b:de:93:51:1a:33:e7:dd:1f:c6:91:3b:
         99:44:94:b0
-----BEGIN CERTIFICATE-----
MIIEIzCCAwugAwIBAgIDEAADMA0GCSqGSIb3DQEBCwUAMEsxCzAJBgNVBAYTAlVT
MRMwEQYDVQQIDApDYWxpZm9ybmlhMQ8wDQYDVQQKDAZNb2NhbmExFjAUBgNVBAMM
DUludGVybWVkaWF0ZTIwHhcNMTYwMzEwMjMwMDI4WhcNNDMwNzI3MjMwMDI4WjBV
MQswCQYDVQQGEwJVUzETMBEGA1UECAwKQ2FsaWZvcm5pYTEPMA0GA1UECgwGTW9j
YW5hMSAwHgYDVQQDDBdzc2xjaGFpbnRlc3QubW9jYW5hLmNvbTCCASIwDQYJKoZI
hvcNAQEBBQADggEPADCCAQoCggEBAOR5swdCl/5gGLboVTccSFUhfiWIsHcC49l1
u7AyrXm3kBq7Kqbe08XOLS2iP6KmjnV/tCBJANMp1KbU0zrhC03AO54NAM+AXUYO
00hXuo+nw0cJxSkyxs8RWAnxF1np6pM5M+llIaPrNWIvKKprozgg1pL6QwuJipV9
axMe1Cm6MWXyLPShF0rOD4ucK1QV/T72nvNdWDcH73W9ozA2WsjIujim9zIg9cz3
np0mgRVYmQN4PStjtgqq26fgYt32FswzTIucQfhLaalwlguT+rsXOIm8udNpY0TA
yQdHyUZ6jNSJctygX/SRoat1+4FgtaYlCK+ptne7s7OdYx6KuAMCAwEAAaOCAQQw
ggEAMB0GA1UdDgQWBBSjZ8Mk65hJ4f9YmjJI6TvYfqgmOTB1BgNVHSMEbjBsgBRc
3zteXaAFihl0iDmVr0TJC0iOgKFPpE0wSzELMAkGA1UEBhMCVVMxEzARBgNVBAgM
CkNhbGlmb3JuaWExDzANBgNVBAoMBk1vY2FuYTEWMBQGA1UEAwwNSW50ZXJtZWRp
YXRlMYIDEAACMAkGA1UdEwQCMAAwCwYDVR0PBAQDAgGmMB0GA1UdEQQWMBSCEnYz
X2xlYWYubW9jYW5hLmNvbTAxBgNVHR8EKjAoMCagJKAihiBodHRwOi8vMTI3LjAu
MC4xOjkwMDAvbW9jYW5hLmNybDANBgkqhkiG9w0BAQsFAAOCAQEAKM7ik5ytQOuh
duxndOOv69duM/wwm82+QbLczT1m4TvAsVDnLseu1yZ6TwAXTKNP8CqNlwFt7OFX
4zF9Btjfprq7I8g+7AMLakpnVnINgWyqsF5m+2kCrg+DXRBYZxi+GRweTuua6vaQ
MZpUexyAAPyrk3H6b5Ze6NO2nDRSgqWDz4pgeNRgXorCPNVO5M43/uRg3P2/vlRH
eusiT/jvaH33biog7v5pG28v+1+4zTRMWYnKcgmxWa1HeuAyoItYw2jbICkl4ZKD
noJyBoK9rF2qP7vA88ft+Mco/kNwoY+bEq9ZBERzgu5Pn3hyp4mMW96TURoz590f
xpE7mUSUsA==
-----END CERTIFICATE-----
