Certificate:
    Data:
        Version: 3 (0x2)
        Serial Number: 1048581 (0x100005)
    Signature Algorithm: sha256WithRSAEncryption
        Issuer: C=US, ST=California, O=Mocana, CN=Intermediate2_1
        Validity
            Not Before: Mar 11 17:52:55 2016 GMT
            Not After : Jul 28 17:52:55 2043 GMT
        Subject: C=US, ST=California, O=Mocana, CN=Intermediate2_2
        Subject Public Key Info:
            Public Key Algorithm: rsaEncryption
                Public-Key: (2048 bit)
                Modulus:
                    00:f8:97:41:02:ee:83:0e:61:e7:e0:48:e6:4e:d6:
                    a9:43:4b:6d:84:65:3f:92:eb:c2:2c:dd:be:90:f4:
                    1e:5f:a1:ea:0a:dd:27:7b:67:8a:df:e8:ac:3f:3d:
                    fc:92:fe:d7:9b:60:f1:73:11:23:41:0c:89:1d:a9:
                    bc:8d:90:3c:b2:53:60:18:11:ec:c4:3b:9a:36:f4:
                    f7:f0:73:e5:23:45:4a:86:02:b6:ab:9f:79:79:74:
                    c9:a0:8f:6c:3b:54:10:25:4c:f6:69:40:81:a2:51:
                    1a:dd:0d:c8:79:34:ee:5a:c5:8b:ef:b0:31:75:ea:
                    ae:92:89:6c:70:6d:0b:f6:ff:5d:9f:da:ba:4f:c3:
                    36:4f:06:35:21:02:92:a7:d0:88:78:6b:61:86:3c:
                    c0:96:2a:56:2c:35:b8:ac:20:bd:3c:8d:27:de:fb:
                    06:47:e5:de:03:4c:3b:51:0c:23:b9:da:f2:55:83:
                    f0:13:42:5f:f0:4a:9b:0a:a0:27:40:f6:81:67:7a:
                    2b:00:d8:e2:7d:f6:7b:f0:06:6a:56:72:11:e1:bb:
                    c9:f2:b6:49:dd:db:09:a8:28:f5:16:cc:4a:57:f9:
                    54:c7:0d:35:e1:f2:91:6c:67:b0:ee:c5:e6:28:bb:
                    6b:a3:c9:38:bf:48:96:9e:a9:5c:b7:d8:ac:39:39:
                    e6:df
                Exponent: 65537 (0x10001)
        X509v3 extensions:
            X509v3 Subject Key Identifier: 
                A6:72:2B:D5:15:A2:C1:EF:9F:B9:77:66:84:A7:81:C3:E2:20:81:65
            X509v3 Authority Key Identifier: 
                keyid:47:F4:38:25:2B:B7:0C:E2:12:D3:4A:3A:39:94:24:E1:D2:0E:9E:2A
                DirName:/C=US/ST=California/L=San Francisco/O=Mocana Corporation/OU=Engineering/CN=ssltest.mocana.com/emailAddress=iot@mocana.com
                serial:10:00:04

            X509v3 Basic Constraints: 
                CA:TRUE, pathlen:1
            X509v3 Key Usage: 
                Digital Signature, Key Encipherment, Certificate Sign, CRL Sign
            X509v3 Subject Alternative Name: 
                DNS:v3_ca.mocana.com
            X509v3 CRL Distribution Points: 

                Full Name:
                  URI:http://127.0.0.1:9000/mocana.crl

    Signature Algorithm: sha256WithRSAEncryption
         43:e1:0f:08:17:16:b6:e3:35:2d:bb:42:9f:42:1b:7a:7d:b0:
         d3:9f:78:0f:00:94:84:b8:be:bd:58:ed:e2:a7:55:0e:75:8b:
         84:c7:70:02:e3:47:50:a5:f9:45:3a:8a:a4:21:93:e0:13:2c:
         57:e4:66:2e:9b:a6:99:d5:51:e8:7f:d8:fd:9e:f7:0f:7e:ea:
         3d:5e:65:b5:7e:7e:ea:4d:09:4b:36:64:5b:eb:7b:e2:59:44:
         08:ec:d7:21:30:f9:07:22:a1:b4:13:69:4f:21:f3:2b:da:ea:
         85:93:f2:06:9c:c7:f9:4b:a6:3c:80:eb:bf:03:e6:b3:bc:66:
         bd:54:53:a2:e7:36:15:f2:da:54:f2:db:8a:d5:bb:1d:e0:70:
         5e:5a:c1:18:52:c0:05:22:43:98:99:ca:86:01:32:d6:45:ff:
         c3:eb:11:97:1e:e1:64:5b:01:01:91:9b:64:82:bc:8c:14:2a:
         06:fe:ca:4f:c4:d0:43:c9:61:22:12:e3:54:e3:6d:f6:8d:e8:
         81:00:0d:26:15:40:07:9d:a3:7f:85:13:a6:04:17:0b:93:bb:
         45:b0:a2:3f:b6:56:f2:3d:b6:fc:3d:60:4f:49:30:14:87:24:
         12:f9:ac:ce:d8:2e:a7:61:0a:a9:62:2f:a7:2f:14:e5:90:1e:
         a7:81:32:57
-----BEGIN CERTIFICATE-----
MIIEhTCCA22gAwIBAgIDEAAFMA0GCSqGSIb3DQEBCwUAME0xCzAJBgNVBAYTAlVT
MRMwEQYDVQQIDApDYWxpZm9ybmlhMQ8wDQYDVQQKDAZNb2NhbmExGDAWBgNVBAMM
D0ludGVybWVkaWF0ZTJfMTAeFw0xNjAzMTExNzUyNTVaFw00MzA3MjgxNzUyNTVa
ME0xCzAJBgNVBAYTAlVTMRMwEQYDVQQIDApDYWxpZm9ybmlhMQ8wDQYDVQQKDAZN
b2NhbmExGDAWBgNVBAMMD0ludGVybWVkaWF0ZTJfMjCCASIwDQYJKoZIhvcNAQEB
BQADggEPADCCAQoCggEBAPiXQQLugw5h5+BI5k7WqUNLbYRlP5LrwizdvpD0Hl+h
6grdJ3tnit/orD89/JL+15tg8XMRI0EMiR2pvI2QPLJTYBgR7MQ7mjb09/Bz5SNF
SoYCtqufeXl0yaCPbDtUECVM9mlAgaJRGt0NyHk07lrFi++wMXXqrpKJbHBtC/b/
XZ/auk/DNk8GNSECkqfQiHhrYYY8wJYqViw1uKwgvTyNJ977Bkfl3gNMO1EMI7na
8lWD8BNCX/BKmwqgJ0D2gWd6KwDY4n32e/AGalZyEeG7yfK2Sd3bCago9RbMSlf5
VMcNNeHykWxnsO7F5ii7a6PJOL9Ilp6pXLfYrDk55t8CAwEAAaOCAWwwggFoMB0G
A1UdDgQWBBSmcivVFaLB75+5d2aEp4HD4iCBZTCB2AYDVR0jBIHQMIHNgBRH9Dgl
K7cM4hLTSjo5lCTh0g6eKqGBr6SBrDCBqTELMAkGA1UEBhMCVVMxEzARBgNVBAgM
CkNhbGlmb3JuaWExFjAUBgNVBAcMDVNhbiBGcmFuY2lzY28xGzAZBgNVBAoMEk1v
Y2FuYSBDb3Jwb3JhdGlvbjEUMBIGA1UECwwLRW5naW5lZXJpbmcxGzAZBgNVBAMM
EnNzbHRlc3QubW9jYW5hLmNvbTEdMBsGCSqGSIb3DQEJARYOaW90QG1vY2FuYS5j
b22CAxAABDAPBgNVHRMECDAGAQH/AgEBMAsGA1UdDwQEAwIBpjAbBgNVHREEFDAS
ghB2M19jYS5tb2NhbmEuY29tMDEGA1UdHwQqMCgwJqAkoCKGIGh0dHA6Ly8xMjcu
MC4wLjE6OTAwMC9tb2NhbmEuY3JsMA0GCSqGSIb3DQEBCwUAA4IBAQBD4Q8IFxa2
4zUtu0KfQht6fbDTn3gPAJSEuL69WO3ip1UOdYuEx3AC40dQpflFOoqkIZPgEyxX
5GYum6aZ1VHof9j9nvcPfuo9XmW1fn7qTQlLNmRb63viWUQI7NchMPkHIqG0E2lP
IfMr2uqFk/IGnMf5S6Y8gOu/A+azvGa9VFOi5zYV8tpU8tuK1bsd4HBeWsEYUsAF
IkOYmcqGATLWRf/D6xGXHuFkWwEBkZtkgryMFCoG/spPxNBDyWEiEuNU4232jeiB
AA0mFUAHnaN/hROmBBcLk7tFsKI/tlbyPbb8PWBPSTAUhyQS+azO2C6nYQqpYi+n
LxTlkB6ngTJX
-----END CERTIFICATE-----
Certificate:
    Data:
        Version: 3 (0x2)
        Serial Number: 1048580 (0x100004)
    Signature Algorithm: sha256WithRSAEncryption
        Issuer: C=US, ST=California, L=San Francisco, O=Mocana Corporation, OU=Engineering, CN=ssltest.mocana.com/emailAddress=iot@mocana.com
        Validity
            Not Before: Mar 11 17:49:51 2016 GMT
            Not After : Jul 28 17:49:51 2043 GMT
        Subject: C=US, ST=California, O=Mocana, CN=Intermediate2_1
        Subject Public Key Info:
            Public Key Algorithm: rsaEncryption
                Public-Key: (2048 bit)
                Modulus:
                    00:9f:f4:f5:19:7a:d7:b5:43:04:67:11:98:49:f3:
                    6d:5d:0c:ea:4e:5f:3b:97:06:79:21:25:f9:93:59:
                    eb:07:30:df:e6:d8:52:3d:e9:f1:bd:2d:a6:7e:a3:
                    2a:2b:95:fc:0a:76:9e:ee:81:aa:35:80:4f:cd:7a:
                    a2:21:4a:05:5a:8e:a8:3e:7d:c5:2d:4c:a6:a2:aa:
                    5c:6c:2f:97:ed:35:6a:93:dd:95:a8:d5:52:32:5a:
                    fa:06:cb:a3:bd:ca:34:2e:35:1c:c2:d1:26:7e:8f:
                    6f:5d:42:be:4f:36:b3:e9:af:69:7d:70:c5:1a:b8:
                    fe:07:b8:1d:91:0c:40:42:fc:ba:57:2f:90:cd:a5:
                    49:e3:a4:c5:57:2f:cd:a8:74:1c:7a:42:80:11:73:
                    f2:d8:79:d6:ac:e6:9a:46:23:b2:cc:03:f1:23:b0:
                    33:28:0e:27:be:ed:e2:35:aa:74:01:bf:a7:2e:86:
                    79:c4:5f:b8:7b:15:a7:c3:a9:8c:ec:a0:00:fa:af:
                    83:d8:3f:17:2a:b3:d9:56:86:22:6a:ac:bf:0a:60:
                    cf:f7:b9:3a:2a:ab:a2:71:86:22:97:df:86:11:a1:
                    2c:b7:ff:73:1d:01:77:20:ae:86:4d:2f:c6:ed:b9:
                    65:6f:7a:25:83:9a:3c:c2:4b:35:e4:dd:69:d0:97:
                    58:ff
                Exponent: 65537 (0x10001)
        X509v3 extensions:
            X509v3 Subject Key Identifier: 
                47:F4:38:25:2B:B7:0C:E2:12:D3:4A:3A:39:94:24:E1:D2:0E:9E:2A
            X509v3 Authority Key Identifier: 
                keyid:D0:6D:14:0B:E6:01:2D:E2:A3:65:D5:2A:90:DA:2E:5E:E7:E4:66:28
                DirName:/C=US/ST=California/L=San Francisco/O=Mocana Corporation/OU=Engineering/CN=ssltest.mocana.com/emailAddress=iot@mocana.com
                serial:80:90:A8:50:23:47:0A:2F

            X509v3 Basic Constraints: 
                CA:TRUE, pathlen:1
            X509v3 Key Usage: 
                Digital Signature, Key Encipherment, Certificate Sign, CRL Sign
            X509v3 Subject Alternative Name: 
                DNS:v3_ca.mocana.com
            X509v3 CRL Distribution Points: 

                Full Name:
                  URI:http://127.0.0.1:9000/mocana.crl

    Signature Algorithm: sha256WithRSAEncryption
         a7:f7:b0:dd:d2:24:84:64:8f:68:d1:05:93:6f:64:14:56:7c:
         2a:6c:02:4f:3a:72:74:18:f8:07:d3:87:5a:b5:10:4d:1c:98:
         de:92:18:37:e8:20:10:72:90:ea:94:52:f8:96:58:91:06:c9:
         07:4b:40:a8:d7:ae:ab:22:74:b8:95:87:05:c1:d0:26:f7:33:
         6f:74:bd:7f:de:42:d9:38:0c:0c:f3:c0:c8:08:bb:e4:aa:19:
         b7:f8:b3:77:2a:de:c2:52:23:c5:05:b3:cc:c4:ef:14:45:70:
         bf:0c:aa:6d:7a:8d:33:2c:43:7f:9b:bf:8d:f8:5d:84:48:19:
         58:23:7a:65:85:f2:b3:d6:c8:05:9d:13:42:48:c7:83:3f:dc:
         e9:00:67:a8:49:b8:7f:d1:d0:9d:bc:a3:ed:bb:be:45:93:0c:
         60:59:62:a1:61:85:a6:6e:a7:94:83:62:23:88:25:6a:3e:9f:
         14:dd:36:74:e4:29:5b:cc:b5:c3:31:40:03:af:16:8e:9e:01:
         7c:24:ad:2e:b8:83:93:b2:ec:33:6a:eb:41:f4:d4:b6:42:73:
         03:d4:de:aa:fa:af:30:de:2a:d3:28:c0:36:d2:4c:ac:fb:ff:
         26:d6:74:93:8f:2f:81:82:ed:bd:98:b1:5a:f6:78:43:84:bc:
         bc:5e:19:40
-----BEGIN CERTIFICATE-----
MIIE6DCCA9CgAwIBAgIDEAAEMA0GCSqGSIb3DQEBCwUAMIGpMQswCQYDVQQGEwJV
UzETMBEGA1UECAwKQ2FsaWZvcm5pYTEWMBQGA1UEBwwNU2FuIEZyYW5jaXNjbzEb
MBkGA1UECgwSTW9jYW5hIENvcnBvcmF0aW9uMRQwEgYDVQQLDAtFbmdpbmVlcmlu
ZzEbMBkGA1UEAwwSc3NsdGVzdC5tb2NhbmEuY29tMR0wGwYJKoZIhvcNAQkBFg5p
b3RAbW9jYW5hLmNvbTAeFw0xNjAzMTExNzQ5NTFaFw00MzA3MjgxNzQ5NTFaME0x
CzAJBgNVBAYTAlVTMRMwEQYDVQQIDApDYWxpZm9ybmlhMQ8wDQYDVQQKDAZNb2Nh
bmExGDAWBgNVBAMMD0ludGVybWVkaWF0ZTJfMTCCASIwDQYJKoZIhvcNAQEBBQAD
ggEPADCCAQoCggEBAJ/09Rl617VDBGcRmEnzbV0M6k5fO5cGeSEl+ZNZ6wcw3+bY
Uj3p8b0tpn6jKiuV/Ap2nu6BqjWAT816oiFKBVqOqD59xS1MpqKqXGwvl+01apPd
lajVUjJa+gbLo73KNC41HMLRJn6Pb11Cvk82s+mvaX1wxRq4/ge4HZEMQEL8ulcv
kM2lSeOkxVcvzah0HHpCgBFz8th51qzmmkYjsswD8SOwMygOJ77t4jWqdAG/py6G
ecRfuHsVp8OpjOygAPqvg9g/Fyqz2VaGImqsvwpgz/e5OiqronGGIpffhhGhLLf/
cx0BdyCuhk0vxu25ZW96JYOaPMJLNeTdadCXWP8CAwEAAaOCAXIwggFuMB0GA1Ud
DgQWBBRH9DglK7cM4hLTSjo5lCTh0g6eKjCB3gYDVR0jBIHWMIHTgBTQbRQL5gEt
4qNl1SqQ2i5e5+RmKKGBr6SBrDCBqTELMAkGA1UEBhMCVVMxEzARBgNVBAgMCkNh
bGlmb3JuaWExFjAUBgNVBAcMDVNhbiBGcmFuY2lzY28xGzAZBgNVBAoMEk1vY2Fu
YSBDb3Jwb3JhdGlvbjEUMBIGA1UECwwLRW5naW5lZXJpbmcxGzAZBgNVBAMMEnNz
bHRlc3QubW9jYW5hLmNvbTEdMBsGCSqGSIb3DQEJARYOaW90QG1vY2FuYS5jb22C
CQCAkKhQI0cKLzAPBgNVHRMECDAGAQH/AgEBMAsGA1UdDwQEAwIBpjAbBgNVHREE
FDASghB2M19jYS5tb2NhbmEuY29tMDEGA1UdHwQqMCgwJqAkoCKGIGh0dHA6Ly8x
MjcuMC4wLjE6OTAwMC9tb2NhbmEuY3JsMA0GCSqGSIb3DQEBCwUAA4IBAQCn97Dd
0iSEZI9o0QWTb2QUVnwqbAJPOnJ0GPgH04datRBNHJjekhg36CAQcpDqlFL4lliR
BskHS0Co166rInS4lYcFwdAm9zNvdL1/3kLZOAwM88DICLvkqhm3+LN3Kt7CUiPF
BbPMxO8URXC/DKpteo0zLEN/m7+N+F2ESBlYI3plhfKz1sgFnRNCSMeDP9zpAGeo
Sbh/0dCdvKPtu75FkwxgWWKhYYWmbqeUg2IjiCVqPp8U3TZ05ClbzLXDMUADrxaO
ngF8JK0uuIOTsuwzautB9NS2QnMD1N6q+q8w3irTKMA20kys+/8m1nSTjy+Bgu29
mLFa9nhDhLy8XhlA
-----END CERTIFICATE-----
-----BEGIN CERTIFICATE-----
MIIFSzCCBDOgAwIBAgIJAICQqFAjRwovMA0GCSqGSIb3DQEBCwUAMIGpMQswCQYD
VQQGEwJVUzETMBEGA1UECAwKQ2FsaWZvcm5pYTEWMBQGA1UEBwwNU2FuIEZyYW5j
aXNjbzEbMBkGA1UECgwSTW9jYW5hIENvcnBvcmF0aW9uMRQwEgYDVQQLDAtFbmdp
bmVlcmluZzEbMBkGA1UEAwwSc3NsdGVzdC5tb2NhbmEuY29tMR0wGwYJKoZIhvcN
AQkBFg5pb3RAbW9jYW5hLmNvbTAeFw0xNjAzMTExNzQ2MDlaFw00MzA3MjgxNzQ2
MDlaMIGpMQswCQYDVQQGEwJVUzETMBEGA1UECAwKQ2FsaWZvcm5pYTEWMBQGA1UE
BwwNU2FuIEZyYW5jaXNjbzEbMBkGA1UECgwSTW9jYW5hIENvcnBvcmF0aW9uMRQw
EgYDVQQLDAtFbmdpbmVlcmluZzEbMBkGA1UEAwwSc3NsdGVzdC5tb2NhbmEuY29t
MR0wGwYJKoZIhvcNAQkBFg5pb3RAbW9jYW5hLmNvbTCCASIwDQYJKoZIhvcNAQEB
BQADggEPADCCAQoCggEBANfB9hj78Oolr5LcQBcO9swy7OP3WbuCASDlgbLWEhvi
vXQ+xS1YCYRlaT3OdtbhARAZKG+oKu0AUKCFUuJPVWbPV13ar/ce+6TLLIaDlHwN
RpEaOcQCfSc/TqmU5Ymp+s291Znygl9quaxmcfWKb3WgG4jAzd/GFIgELDxO5snV
pnj+wzuBFEMIWapQ/6M7Vg7RED7j9TR24K8dACX4mg4NUPn/qF+dvH4kthickzjG
xTnnx0Bsqu18xQ7gl5Vvp4leZvf4lp28ID9X+8/AFMT0vCl5ZFPHhydxeQOyIOk6
0HqyxNSwoCiGEHmG6R3JCgTcXINhnRAMAKge4e6pe3cCAwEAAaOCAXIwggFuMB0G
A1UdDgQWBBTQbRQL5gEt4qNl1SqQ2i5e5+RmKDCB3gYDVR0jBIHWMIHTgBTQbRQL
5gEt4qNl1SqQ2i5e5+RmKKGBr6SBrDCBqTELMAkGA1UEBhMCVVMxEzARBgNVBAgM
CkNhbGlmb3JuaWExFjAUBgNVBAcMDVNhbiBGcmFuY2lzY28xGzAZBgNVBAoMEk1v
Y2FuYSBDb3Jwb3JhdGlvbjEUMBIGA1UECwwLRW5naW5lZXJpbmcxGzAZBgNVBAMM
EnNzbHRlc3QubW9jYW5hLmNvbTEdMBsGCSqGSIb3DQEJARYOaW90QG1vY2FuYS5j
b22CCQCAkKhQI0cKLzAPBgNVHRMECDAGAQH/AgECMAsGA1UdDwQEAwIBpjAbBgNV
HREEFDASghB2M19jYS5tb2NhbmEuY29tMDEGA1UdHwQqMCgwJqAkoCKGIGh0dHA6
Ly8xMjcuMC4wLjE6OTAwMC9tb2NhbmEuY3JsMA0GCSqGSIb3DQEBCwUAA4IBAQAg
6YABBKF3PbU+ZWLMJurQRvDsrabGXTkmfGNlwV/GNfzOs+hTmbBvDXSNB/h9iuwI
86l1wvkNd1iOJSioezbtxTvN3T9G/5PNBwxqRXottllWBgIu/gr9cBAzf6g0HKjj
Hqm/12LNzkkVxBDrPhMn6T8cudAvMOb4LDy5ebz/5+RiGBPH7Zi/FW8t77hGLqFo
rNwwbxaowF/Fp4GuzbS2eVcsrlxS2yPLVN2SwyyeYUSLIe4OB8q/ILJpxgq8UFVP
C5E9/F88npBDXSdF/M6XOv/gXrQjGlZ8kk3lXqRiXD5f8qI5a1uWLBOS1bZi2e5/
2KSL6tGcBThYn2mtNBg1
-----END CERTIFICATE-----
