Certificate:
    Data:
        Version: 3 (0x2)
        Serial Number: 1048578 (0x100002)
    Signature Algorithm: sha256WithRSAEncryption
        Issuer: C=US, ST=California, O=Mocana, CN=Intermediate1
        Validity
            Not Before: Mar 10 22:55:51 2016 GMT
            Not After : Jul 27 22:55:51 2043 GMT
        Subject: C=US, ST=California, O=Mocana, CN=Intermediate2
        Subject Public Key Info:
            Public Key Algorithm: rsaEncryption
                Public-Key: (2048 bit)
                Modulus:
                    00:9f:d1:dd:2f:7d:d4:4a:f0:f2:28:ee:ba:75:e6:
                    c0:a3:95:1c:ef:da:0b:cb:91:2a:f3:a6:79:07:ee:
                    e8:50:bc:a4:b3:f7:45:fd:51:51:b9:9d:81:c4:07:
                    ca:4b:96:8f:39:38:cd:c4:59:98:b9:70:19:80:3d:
                    ba:74:05:73:63:d9:7e:4d:07:c2:ba:e1:cf:6e:0f:
                    e9:cf:fd:56:f5:c2:b2:6f:24:ec:31:99:99:3d:ee:
                    24:d4:68:cf:da:66:11:b7:36:5d:dc:c5:15:f3:7f:
                    41:b7:fe:c6:8b:ca:9e:81:eb:79:23:5c:e9:93:af:
                    6d:de:e7:17:f8:3c:6d:53:ee:fc:1d:d8:5c:c9:7d:
                    ce:a8:3e:76:e0:62:fc:c3:b9:27:e2:d1:d5:b2:c8:
                    56:c9:6f:06:48:3a:9b:aa:dd:11:5c:27:89:33:8d:
                    97:4a:8b:c0:cd:9b:67:6c:b1:9b:82:cc:74:49:55:
                    b1:78:3b:7d:d3:3a:44:09:0f:43:7b:f1:10:ad:1e:
                    0a:60:e7:8b:aa:5e:30:8d:b0:09:13:95:a0:73:d2:
                    ab:a1:54:78:54:42:b2:e5:5b:05:ec:a4:a7:fe:1e:
                    e1:b6:7b:76:30:fc:69:79:c7:0c:ec:d2:a8:dc:65:
                    22:1c:ba:fd:60:7f:c8:62:ee:f1:58:73:b6:1e:79:
                    77:d3
                Exponent: 65537 (0x10001)
        X509v3 extensions:
            X509v3 Subject Key Identifier: 
                5C:DF:3B:5E:5D:A0:05:8A:19:74:88:39:95:AF:44:C9:0B:48:8E:80
            X509v3 Authority Key Identifier: 
                keyid:2A:57:DD:DC:95:9D:B6:BA:44:25:5B:CC:C8:E7:DA:1E:31:E1:E1:07
                DirName:/C=US/ST=California/L=San Francisco/O=Mocana Corporation/OU=Engineering/CN=ssltest.mocana.com/emailAddress=iot@mocana.com
                serial:10:00:01

            X509v3 Basic Constraints: 
                CA:TRUE
            X509v3 Key Usage: 
                Digital Signature, Key Encipherment, Certificate Sign, CRL Sign
            X509v3 Subject Alternative Name: 
                DNS:v3_ca.mocana.com
            X509v3 CRL Distribution Points: 

                Full Name:
                  URI:http://127.0.0.1:9000/mocana.crl

    Signature Algorithm: sha256WithRSAEncryption
         10:54:74:56:0e:2d:2b:77:26:f0:9d:01:c0:74:bf:87:c2:48:
         2c:2e:af:26:6f:88:5a:e3:74:26:87:f1:b6:77:c9:7a:52:f1:
         1e:c6:d6:3d:09:c4:77:e6:f0:72:57:e1:d1:cc:24:93:0b:fe:
         39:4d:97:01:1b:3b:4e:d6:94:d4:04:e5:39:9a:d4:49:60:91:
         26:a9:5b:49:d2:2a:dc:58:4f:05:05:0d:e5:e3:b5:0b:be:87:
         64:23:68:83:ba:35:8d:c6:ed:dc:70:11:b1:d0:9e:86:aa:c9:
         30:9d:f7:07:94:78:fd:bb:78:75:d7:1d:d1:cc:71:61:c4:13:
         8a:c3:a8:2c:1d:ca:9f:44:16:b4:3a:44:68:51:2f:a5:39:bb:
         7b:b0:25:4f:5f:47:30:38:7d:6d:5a:b5:b3:15:e4:60:68:39:
         8e:f2:89:3b:99:bd:53:a8:a3:4b:1f:e6:32:97:15:4b:36:cd:
         9e:83:f4:01:be:e6:8a:a2:36:11:45:3d:a3:5b:69:e7:0c:b8:
         a3:cc:ad:2d:73:1b:00:cb:88:a0:bd:ff:3c:d4:4d:11:ec:e9:
         9f:53:b1:fa:4e:e3:0c:6d:64:ce:7a:9b:68:e8:c1:b7:d0:ef:
         7c:07:d6:96:8c:29:95:06:61:0c:ec:58:bc:81:49:24:31:5a:
         96:7a:e5:34
-----BEGIN CERTIFICATE-----
MIIEfjCCA2agAwIBAgIDEAACMA0GCSqGSIb3DQEBCwUAMEsxCzAJBgNVBAYTAlVT
MRMwEQYDVQQIDApDYWxpZm9ybmlhMQ8wDQYDVQQKDAZNb2NhbmExFjAUBgNVBAMM
DUludGVybWVkaWF0ZTEwHhcNMTYwMzEwMjI1NTUxWhcNNDMwNzI3MjI1NTUxWjBL
MQswCQYDVQQGEwJVUzETMBEGA1UECAwKQ2FsaWZvcm5pYTEPMA0GA1UECgwGTW9j
YW5hMRYwFAYDVQQDDA1JbnRlcm1lZGlhdGUyMIIBIjANBgkqhkiG9w0BAQEFAAOC
AQ8AMIIBCgKCAQEAn9HdL33USvDyKO66debAo5Uc79oLy5Eq86Z5B+7oULyks/dF
/VFRuZ2BxAfKS5aPOTjNxFmYuXAZgD26dAVzY9l+TQfCuuHPbg/pz/1W9cKybyTs
MZmZPe4k1GjP2mYRtzZd3MUV839Bt/7Gi8qeget5I1zpk69t3ucX+DxtU+78Hdhc
yX3OqD524GL8w7kn4tHVsshWyW8GSDqbqt0RXCeJM42XSovAzZtnbLGbgsx0SVWx
eDt90zpECQ9De/EQrR4KYOeLql4wjbAJE5Wgc9KroVR4VEKy5VsF7KSn/h7htnt2
MPxpeccM7NKo3GUiHLr9YH/IYu7xWHO2Hnl30wIDAQABo4IBaTCCAWUwHQYDVR0O
BBYEFFzfO15doAWKGXSIOZWvRMkLSI6AMIHYBgNVHSMEgdAwgc2AFCpX3dyVnba6
RCVbzMjn2h4x4eEHoYGvpIGsMIGpMQswCQYDVQQGEwJVUzETMBEGA1UECAwKQ2Fs
aWZvcm5pYTEWMBQGA1UEBwwNU2FuIEZyYW5jaXNjbzEbMBkGA1UECgwSTW9jYW5h
IENvcnBvcmF0aW9uMRQwEgYDVQQLDAtFbmdpbmVlcmluZzEbMBkGA1UEAwwSc3Ns
dGVzdC5tb2NhbmEuY29tMR0wGwYJKoZIhvcNAQkBFg5pb3RAbW9jYW5hLmNvbYID
EAABMAwGA1UdEwQFMAMBAf8wCwYDVR0PBAQDAgGmMBsGA1UdEQQUMBKCEHYzX2Nh
Lm1vY2FuYS5jb20wMQYDVR0fBCowKDAmoCSgIoYgaHR0cDovLzEyNy4wLjAuMTo5
MDAwL21vY2FuYS5jcmwwDQYJKoZIhvcNAQELBQADggEBABBUdFYOLSt3JvCdAcB0
v4fCSCwuryZviFrjdCaH8bZ3yXpS8R7G1j0JxHfm8HJX4dHMJJML/jlNlwEbO07W
lNQE5Tma1ElgkSapW0nSKtxYTwUFDeXjtQu+h2QjaIO6NY3G7dxwEbHQnoaqyTCd
9weUeP27eHXXHdHMcWHEE4rDqCwdyp9EFrQ6RGhRL6U5u3uwJU9fRzA4fW1atbMV
5GBoOY7yiTuZvVOoo0sf5jKXFUs2zZ6D9AG+5oqiNhFFPaNbaecMuKPMrS1zGwDL
iKC9/zzUTRHs6Z9TsfpO4wxtZM56m2jowbfQ73wH1paMKZUGYQzsWLyBSSQxWpZ6
5TQ=
-----END CERTIFICATE-----
Certificate:
    Data:
        Version: 3 (0x2)
        Serial Number: 1048577 (0x100001)
    Signature Algorithm: sha256WithRSAEncryption
        Issuer: C=US, ST=California, L=San Francisco, O=Mocana Corporation, OU=Engineering, CN=ssltest.mocana.com/emailAddress=iot@mocana.com
        Validity
            Not Before: Mar 10 22:51:52 2016 GMT
            Not After : Jul 27 22:51:52 2043 GMT
        Subject: C=US, ST=California, O=Mocana, CN=Intermediate1
        Subject Public Key Info:
            Public Key Algorithm: rsaEncryption
                Public-Key: (2048 bit)
                Modulus:
                    00:91:19:52:7b:ee:27:cf:de:73:a8:20:f9:40:e2:
                    7d:24:28:4a:ee:b8:59:f8:f0:2f:37:79:3e:8c:ca:
                    e4:a0:60:c9:88:9a:fa:c1:95:c3:39:3e:59:6b:e4:
                    34:ee:44:6e:5d:5e:34:a6:c8:3b:a9:04:f0:28:e1:
                    de:57:2e:02:c1:1f:ca:1e:90:ac:0b:36:7e:2e:62:
                    45:a6:dc:68:6e:5e:8a:28:67:d2:7c:47:4f:d3:6e:
                    8b:27:7e:66:77:49:c5:31:52:b7:71:aa:71:67:8f:
                    6d:a2:12:8e:31:da:7e:0f:ec:cd:73:4e:50:96:9d:
                    52:58:3c:d3:dc:bc:4b:2e:89:53:c7:37:f0:c0:61:
                    f1:68:61:60:b0:44:2b:ce:e0:fa:65:29:45:25:11:
                    28:d6:c4:b1:51:a1:6b:4a:de:0d:63:0a:d1:ba:44:
                    ae:44:61:26:91:5a:ba:ee:12:d4:9c:b1:6b:73:ca:
                    11:d7:b4:d7:56:d1:34:ee:03:ff:98:d3:2a:6c:a5:
                    55:fd:61:76:ac:c1:c4:50:f9:f9:25:94:67:65:b8:
                    bf:ad:45:40:23:fe:72:54:9e:39:98:14:17:06:3e:
                    63:90:b3:03:44:1f:1e:a5:44:39:0c:9e:b6:df:2b:
                    1f:fc:6b:d4:e2:65:db:10:06:66:ff:a5:19:f5:11:
                    76:8b
                Exponent: 65537 (0x10001)
        X509v3 extensions:
            X509v3 Subject Key Identifier: 
                2A:57:DD:DC:95:9D:B6:BA:44:25:5B:CC:C8:E7:DA:1E:31:E1:E1:07
            X509v3 Authority Key Identifier: 
                keyid:BF:94:9C:19:B7:AD:4D:11:DB:21:7B:01:AD:84:8D:9F:3F:D5:59:1C
                DirName:/C=US/ST=California/L=San Francisco/O=Mocana Corporation/OU=Engineering/CN=ssltest.mocana.com/emailAddress=iot@mocana.com
                serial:D4:7D:E2:F6:02:41:28:74

            X509v3 Basic Constraints: 
                CA:TRUE
            X509v3 Key Usage: 
                Digital Signature, Key Encipherment, Certificate Sign, CRL Sign
            X509v3 Subject Alternative Name: 
                DNS:v3_ca.mocana.com
            X509v3 CRL Distribution Points: 

                Full Name:
                  URI:http://127.0.0.1:9000/mocana.crl

    Signature Algorithm: sha256WithRSAEncryption
         bf:d7:23:0e:4f:08:23:7a:ee:86:0d:54:45:09:17:6f:e7:1f:
         67:2d:d0:aa:d5:fe:a3:12:8a:eb:0d:5c:82:7b:94:db:f8:c3:
         7f:c5:26:31:13:a8:69:b5:3f:ac:bf:82:01:d4:95:e3:f5:10:
         50:be:78:eb:e5:11:45:e2:32:f9:9b:3e:1a:04:04:c7:48:ce:
         fd:cc:13:fb:8b:af:9d:f9:4c:ab:dc:48:d8:ac:e0:7f:07:e6:
         68:d8:37:19:2d:de:c8:1d:67:98:27:39:c4:d9:93:2f:44:4c:
         d7:81:63:b0:6c:c2:0c:2d:9b:fb:50:f0:4f:18:1c:62:15:20:
         96:79:84:29:3c:96:a0:23:f2:5c:77:c3:0e:fe:84:b6:5d:0d:
         8e:39:a5:9d:ff:be:dd:8d:c7:4d:52:b0:df:5c:96:ff:5b:38:
         19:f8:b6:d3:0e:fe:49:c4:2f:4d:b7:a5:e7:2d:13:60:ae:29:
         85:58:0d:e6:ef:bc:9b:ec:7d:1e:85:d7:17:38:b1:a8:e8:f6:
         76:e6:15:a2:bd:31:95:91:5f:8d:81:92:f8:56:e6:49:a3:82:
         54:d6:62:0b:94:47:03:55:43:71:22:bb:8d:59:dd:8a:88:09:
         45:3b:87:46:89:e0:ca:5d:00:ba:6c:d2:ed:41:d2:2d:91:ca:
         0e:92:ed:c6
-----BEGIN CERTIFICATE-----
MIIE4zCCA8ugAwIBAgIDEAABMA0GCSqGSIb3DQEBCwUAMIGpMQswCQYDVQQGEwJV
UzETMBEGA1UECAwKQ2FsaWZvcm5pYTEWMBQGA1UEBwwNU2FuIEZyYW5jaXNjbzEb
MBkGA1UECgwSTW9jYW5hIENvcnBvcmF0aW9uMRQwEgYDVQQLDAtFbmdpbmVlcmlu
ZzEbMBkGA1UEAwwSc3NsdGVzdC5tb2NhbmEuY29tMR0wGwYJKoZIhvcNAQkBFg5p
b3RAbW9jYW5hLmNvbTAeFw0xNjAzMTAyMjUxNTJaFw00MzA3MjcyMjUxNTJaMEsx
CzAJBgNVBAYTAlVTMRMwEQYDVQQIDApDYWxpZm9ybmlhMQ8wDQYDVQQKDAZNb2Nh
bmExFjAUBgNVBAMMDUludGVybWVkaWF0ZTEwggEiMA0GCSqGSIb3DQEBAQUAA4IB
DwAwggEKAoIBAQCRGVJ77ifP3nOoIPlA4n0kKEruuFn48C83eT6MyuSgYMmImvrB
lcM5Pllr5DTuRG5dXjSmyDupBPAo4d5XLgLBH8oekKwLNn4uYkWm3GhuXoooZ9J8
R0/TbosnfmZ3ScUxUrdxqnFnj22iEo4x2n4P7M1zTlCWnVJYPNPcvEsuiVPHN/DA
YfFoYWCwRCvO4PplKUUlESjWxLFRoWtK3g1jCtG6RK5EYSaRWrruEtScsWtzyhHX
tNdW0TTuA/+Y0ypspVX9YXaswcRQ+fkllGdluL+tRUAj/nJUnjmYFBcGPmOQswNE
Hx6lRDkMnrbfKx/8a9TiZdsQBmb/pRn1EXaLAgMBAAGjggFvMIIBazAdBgNVHQ4E
FgQUKlfd3JWdtrpEJVvMyOfaHjHh4Qcwgd4GA1UdIwSB1jCB04AUv5ScGbetTRHb
IXsBrYSNnz/VWRyhga+kgawwgakxCzAJBgNVBAYTAlVTMRMwEQYDVQQIDApDYWxp
Zm9ybmlhMRYwFAYDVQQHDA1TYW4gRnJhbmNpc2NvMRswGQYDVQQKDBJNb2NhbmEg
Q29ycG9yYXRpb24xFDASBgNVBAsMC0VuZ2luZWVyaW5nMRswGQYDVQQDDBJzc2x0
ZXN0Lm1vY2FuYS5jb20xHTAbBgkqhkiG9w0BCQEWDmlvdEBtb2NhbmEuY29tggkA
1H3i9gJBKHQwDAYDVR0TBAUwAwEB/zALBgNVHQ8EBAMCAaYwGwYDVR0RBBQwEoIQ
djNfY2EubW9jYW5hLmNvbTAxBgNVHR8EKjAoMCagJKAihiBodHRwOi8vMTI3LjAu
MC4xOjkwMDAvbW9jYW5hLmNybDANBgkqhkiG9w0BAQsFAAOCAQEAv9cjDk8II3ru
hg1URQkXb+cfZy3QqtX+oxKK6w1cgnuU2/jDf8UmMROoabU/rL+CAdSV4/UQUL54
6+URReIy+Zs+GgQEx0jO/cwT+4uvnflMq9xI2KzgfwfmaNg3GS3eyB1nmCc5xNmT
L0RM14FjsGzCDC2b+1DwTxgcYhUglnmEKTyWoCPyXHfDDv6Etl0Njjmlnf++3Y3H
TVKw31yW/1s4Gfi20w7+ScQvTbel5y0TYK4phVgN5u+8m+x9HoXXFzixqOj2duYV
or0xlZFfjYGS+FbmSaOCVNZiC5RHA1VDcSK7jVndiogJRTuHRongyl0AumzS7UHS
LZHKDpLtxg==
-----END CERTIFICATE-----
-----BEGIN CERTIFICATE-----
MIIFSzCCBDOgAwIBAgIJANR94vYCQSh0MA0GCSqGSIb3DQEBCwUAMIGpMQswCQYD
VQQGEwJVUzETMBEGA1UECAwKQ2FsaWZvcm5pYTEWMBQGA1UEBwwNU2FuIEZyYW5j
aXNjbzEbMBkGA1UECgwSTW9jYW5hIENvcnBvcmF0aW9uMRQwEgYDVQQLDAtFbmdp
bmVlcmluZzEbMBkGA1UEAwwSc3NsdGVzdC5tb2NhbmEuY29tMR0wGwYJKoZIhvcN
AQkBFg5pb3RAbW9jYW5hLmNvbTAeFw0xNjAzMTAyMjE1NDJaFw00MzA3MjcyMjE1
NDJaMIGpMQswCQYDVQQGEwJVUzETMBEGA1UECAwKQ2FsaWZvcm5pYTEWMBQGA1UE
BwwNU2FuIEZyYW5jaXNjbzEbMBkGA1UECgwSTW9jYW5hIENvcnBvcmF0aW9uMRQw
EgYDVQQLDAtFbmdpbmVlcmluZzEbMBkGA1UEAwwSc3NsdGVzdC5tb2NhbmEuY29t
MR0wGwYJKoZIhvcNAQkBFg5pb3RAbW9jYW5hLmNvbTCCASIwDQYJKoZIhvcNAQEB
BQADggEPADCCAQoCggEBAMbTJYm6q5jHKID03+PLA6LJBTIMcVz4+huSQOuPIguP
TpeeXxtPIrXFac7zhwSCYp/Na/FB/JWwEOApDtQ6Npw1IZHrra5UZC3Nz27ap9qk
nc1B75LQJ8aOcssXDMy5ihewfbldVOb8kr4ggn2ZxS0NpDdM64lEyWaB+PS6snFR
zng5R9tAtObuqaOjhsCQSchMUWP0J6EWGAgRysKwcomO60fAIh5pG1hdJmsMRFEh
XTKAFUHzN3D1ajAcfYa4sobd1IxMdEOZ4Jir2uSvdysbu4ByF29kVcZRqSWMIPlZ
mh5369M/NG1LRK+gTBxRGlyw8NTfpwta99OTBWbWzNUCAwEAAaOCAXIwggFuMB0G
A1UdDgQWBBS/lJwZt61NEdshewGthI2fP9VZHDCB3gYDVR0jBIHWMIHTgBS/lJwZ
t61NEdshewGthI2fP9VZHKGBr6SBrDCBqTELMAkGA1UEBhMCVVMxEzARBgNVBAgM
CkNhbGlmb3JuaWExFjAUBgNVBAcMDVNhbiBGcmFuY2lzY28xGzAZBgNVBAoMEk1v
Y2FuYSBDb3Jwb3JhdGlvbjEUMBIGA1UECwwLRW5naW5lZXJpbmcxGzAZBgNVBAMM
EnNzbHRlc3QubW9jYW5hLmNvbTEdMBsGCSqGSIb3DQEJARYOaW90QG1vY2FuYS5j
b22CCQDUfeL2AkEodDAPBgNVHRMECDAGAQH/AgEBMAsGA1UdDwQEAwIBpjAbBgNV
HREEFDASghB2M19jYS5tb2NhbmEuY29tMDEGA1UdHwQqMCgwJqAkoCKGIGh0dHA6
Ly8xMjcuMC4wLjE6OTAwMC9tb2NhbmEuY3JsMA0GCSqGSIb3DQEBCwUAA4IBAQBN
mwH3gqU2gWjdjHEsqoJEhQQe6JGqUDR0s98b16B22rGDPZwMG2ct62faiGfzQJga
HH+c8SNRdaVeWQ4bR8fcH5XAHjis9084bUBEiSOFnExlHKPil1FAzUI/YGCO+xSw
3zS3e8MHDIGdcMSkFMyYb2wBNDNvbkZd6ZM/egzkooDFYAgtJHNMpxEBKsIMU53R
0qsEeWrmWS4NJgcTMRNUjmnL4qjRAHow7oNyD5/i2Nb18eb/Ya9uZJwl6IKLz9Mq
cMgT4VQUwd1BgGhl/pwLWhQdBY67enH/CrJqY9HQ7If8SS4ZJiJkqz2WdpFGb26k
y1c/Nf5zrZa1cV+T/wYl
-----END CERTIFICATE-----
