Certificate:
    Data:
        Version: 3 (0x2)
        Serial Number: 1048582 (0x100006)
    Signature Algorithm: sha256WithRSAEncryption
        Issuer: C=US, ST=California, O=Mocana, CN=Intermediate2_2
        Validity
            Not Before: Mar 11 17:53:31 2016 GMT
            Not After : Jul 28 17:53:31 2043 GMT
        Subject: C=US, ST=California, O=Mocana, CN=sslchaintest2.mocana.com
        Subject Public Key Info:
            Public Key Algorithm: rsaEncryption
                Public-Key: (2048 bit)
                Modulus:
                    00:bf:a0:43:75:63:0d:5a:42:19:2e:dc:4f:a7:5a:
                    81:c7:e5:cd:dd:13:52:bc:e2:2a:2f:9f:67:05:ce:
                    ea:ef:6d:9e:bf:03:01:fb:3d:de:69:ed:b0:1b:16:
                    e4:d5:d0:5a:f5:b3:69:26:4f:0e:61:f4:43:7f:06:
                    a5:76:5b:65:c7:e5:3a:f9:24:dd:db:5e:2c:11:f6:
                    f9:67:9f:84:df:fb:9b:30:f0:1f:31:15:5a:f6:d6:
                    95:78:08:26:c5:56:cf:3f:aa:7a:98:b5:f6:db:ff:
                    20:13:30:69:b4:2f:d4:74:aa:1d:b4:7f:10:6f:ca:
                    1d:72:17:92:6d:5c:42:bd:63:72:b2:93:c7:55:9f:
                    4a:b7:41:3f:d5:e9:4a:ec:73:bb:b9:f0:a0:a4:4e:
                    b9:a5:21:39:3e:01:f5:33:27:e9:23:31:44:e2:2a:
                    61:35:92:69:e8:d2:98:ba:96:84:75:13:e5:44:65:
                    8d:f4:a9:71:3e:35:55:e4:7a:ae:3a:ec:29:40:b1:
                    14:ec:5b:01:0a:b2:e8:02:3a:11:d6:80:4d:c6:3c:
                    67:6f:0d:64:65:0d:3f:58:ee:cc:14:c7:14:c0:69:
                    a0:2c:6c:62:27:80:b6:61:6a:78:a7:f2:75:61:8d:
                    5d:2d:51:f0:f7:62:56:21:ae:b8:82:5b:b8:ac:cc:
                    a1:21
                Exponent: 65537 (0x10001)
        X509v3 extensions:
            X509v3 Subject Key Identifier: 
                2D:0E:D4:88:BB:BF:8A:20:39:FE:90:60:8F:15:D0:95:41:F1:16:89
            X509v3 Authority Key Identifier: 
                keyid:A6:72:2B:D5:15:A2:C1:EF:9F:B9:77:66:84:A7:81:C3:E2:20:81:65
                DirName:/C=US/ST=California/O=Mocana/CN=Intermediate2_1
                serial:10:00:05

            X509v3 Basic Constraints: 
                CA:FALSE
            X509v3 Key Usage: 
                Digital Signature, Key Encipherment, Certificate Sign, CRL Sign
            X509v3 Subject Alternative Name: 
                DNS:v3_leaf.mocana.com
            X509v3 CRL Distribution Points: 

                Full Name:
                  URI:http://127.0.0.1:9000/mocana.crl

    Signature Algorithm: sha256WithRSAEncryption
         79:94:33:16:10:00:31:7f:c2:7a:52:13:1b:94:d4:9e:b1:3a:
         22:c9:1c:24:6b:45:3f:a5:48:93:38:d7:19:a5:71:82:db:fa:
         e6:78:00:ff:e0:16:af:38:d0:a1:cc:be:4b:86:e0:48:b2:80:
         e9:47:6f:38:c7:78:b4:95:22:90:42:1f:fd:8d:b4:d6:ed:9c:
         ca:2c:34:8a:81:b5:d2:94:1f:e4:57:3a:31:9e:df:0c:29:fc:
         f2:3a:24:7f:45:24:72:7c:ba:5f:0c:88:1f:cb:55:57:ea:db:
         e3:36:9b:c6:4a:ff:f1:c4:38:6d:58:4e:27:63:1c:83:b9:66:
         ea:de:1d:f7:28:49:d6:51:5c:b1:ef:0e:79:ac:41:6a:86:5a:
         2a:8d:bc:be:9b:a0:b6:ce:b6:43:f2:d4:05:62:a8:ed:fd:6c:
         f3:d1:40:33:f3:2b:7a:ac:f9:2b:c4:14:1a:e5:4a:28:ca:7e:
         23:c3:32:a2:12:93:ef:4a:0e:30:90:44:c0:af:60:ee:da:d4:
         78:a9:5f:1c:a3:e6:a3:19:90:d6:5c:af:43:a2:03:16:71:94:
         13:2f:82:11:01:dc:99:57:09:bb:11:fd:7d:77:4a:ec:70:3c:
         89:61:24:e0:0d:13:0b:8e:c4:76:9f:be:76:c1:6a:d6:a9:ce:
         e3:ae:53:97
-----BEGIN CERTIFICATE-----
MIIEKDCCAxCgAwIBAgIDEAAGMA0GCSqGSIb3DQEBCwUAME0xCzAJBgNVBAYTAlVT
MRMwEQYDVQQIDApDYWxpZm9ybmlhMQ8wDQYDVQQKDAZNb2NhbmExGDAWBgNVBAMM
D0ludGVybWVkaWF0ZTJfMjAeFw0xNjAzMTExNzUzMzFaFw00MzA3MjgxNzUzMzFa
MFYxCzAJBgNVBAYTAlVTMRMwEQYDVQQIDApDYWxpZm9ybmlhMQ8wDQYDVQQKDAZN
b2NhbmExITAfBgNVBAMMGHNzbGNoYWludGVzdDIubW9jYW5hLmNvbTCCASIwDQYJ
KoZIhvcNAQEBBQADggEPADCCAQoCggEBAL+gQ3VjDVpCGS7cT6dagcflzd0TUrzi
Ki+fZwXO6u9tnr8DAfs93mntsBsW5NXQWvWzaSZPDmH0Q38GpXZbZcflOvkk3dte
LBH2+WefhN/7mzDwHzEVWvbWlXgIJsVWzz+qepi19tv/IBMwabQv1HSqHbR/EG/K
HXIXkm1cQr1jcrKTx1WfSrdBP9XpSuxzu7nwoKROuaUhOT4B9TMn6SMxROIqYTWS
aejSmLqWhHUT5URljfSpcT41VeR6rjrsKUCxFOxbAQqy6AI6EdaATcY8Z28NZGUN
P1juzBTHFMBpoCxsYieAtmFqeKfydWGNXS1R8PdiViGuuIJbuKzMoSECAwEAAaOC
AQYwggECMB0GA1UdDgQWBBQtDtSIu7+KIDn+kGCPFdCVQfEWiTB3BgNVHSMEcDBu
gBSmcivVFaLB75+5d2aEp4HD4iCBZaFRpE8wTTELMAkGA1UEBhMCVVMxEzARBgNV
BAgMCkNhbGlmb3JuaWExDzANBgNVBAoMBk1vY2FuYTEYMBYGA1UEAwwPSW50ZXJt
ZWRpYXRlMl8xggMQAAUwCQYDVR0TBAIwADALBgNVHQ8EBAMCAaYwHQYDVR0RBBYw
FIISdjNfbGVhZi5tb2NhbmEuY29tMDEGA1UdHwQqMCgwJqAkoCKGIGh0dHA6Ly8x
MjcuMC4wLjE6OTAwMC9tb2NhbmEuY3JsMA0GCSqGSIb3DQEBCwUAA4IBAQB5lDMW
EAAxf8J6UhMblNSesToiyRwka0U/pUiTONcZpXGC2/rmeAD/4BavONChzL5LhuBI
soDpR284x3i0lSKQQh/9jbTW7ZzKLDSKgbXSlB/kVzoxnt8MKfzyOiR/RSRyfLpf
DIgfy1VX6tvjNpvGSv/xxDhtWE4nYxyDuWbq3h33KEnWUVyx7w55rEFqhloqjby+
m6C2zrZD8tQFYqjt/Wzz0UAz8yt6rPkrxBQa5Uooyn4jwzKiEpPvSg4wkETAr2Du
2tR4qV8co+ajGZDWXK9DogMWcZQTL4IRAdyZVwm7Ef19d0rscDyJYSTgDRMLjsR2
n752wWrWqc7jrlOX
-----END CERTIFICATE-----
