Certificate:
    Data:
        Version: 3 (0x2)
        Serial Number: 1048578 (0x100002)
    Signature Algorithm: sha256WithRSAEncryption
        Issuer: C=US, ST=California, O=Mocana, CN=Intermediate1
        Validity
            Not Before: Mar 10 22:55:51 2016 GMT
            Not After : Jul 27 22:55:51 2043 GMT
        Subject: C=US, ST=California, O=Mocana, CN=Intermediate2
        Subject Public Key Info:
            Public Key Algorithm: rsaEncryption
                Public-Key: (2048 bit)
                Modulus:
                    00:9f:d1:dd:2f:7d:d4:4a:f0:f2:28:ee:ba:75:e6:
                    c0:a3:95:1c:ef:da:0b:cb:91:2a:f3:a6:79:07:ee:
                    e8:50:bc:a4:b3:f7:45:fd:51:51:b9:9d:81:c4:07:
                    ca:4b:96:8f:39:38:cd:c4:59:98:b9:70:19:80:3d:
                    ba:74:05:73:63:d9:7e:4d:07:c2:ba:e1:cf:6e:0f:
                    e9:cf:fd:56:f5:c2:b2:6f:24:ec:31:99:99:3d:ee:
                    24:d4:68:cf:da:66:11:b7:36:5d:dc:c5:15:f3:7f:
                    41:b7:fe:c6:8b:ca:9e:81:eb:79:23:5c:e9:93:af:
                    6d:de:e7:17:f8:3c:6d:53:ee:fc:1d:d8:5c:c9:7d:
                    ce:a8:3e:76:e0:62:fc:c3:b9:27:e2:d1:d5:b2:c8:
                    56:c9:6f:06:48:3a:9b:aa:dd:11:5c:27:89:33:8d:
                    97:4a:8b:c0:cd:9b:67:6c:b1:9b:82:cc:74:49:55:
                    b1:78:3b:7d:d3:3a:44:09:0f:43:7b:f1:10:ad:1e:
                    0a:60:e7:8b:aa:5e:30:8d:b0:09:13:95:a0:73:d2:
                    ab:a1:54:78:54:42:b2:e5:5b:05:ec:a4:a7:fe:1e:
                    e1:b6:7b:76:30:fc:69:79:c7:0c:ec:d2:a8:dc:65:
                    22:1c:ba:fd:60:7f:c8:62:ee:f1:58:73:b6:1e:79:
                    77:d3
                Exponent: 65537 (0x10001)
        X509v3 extensions:
            X509v3 Subject Key Identifier: 
                5C:DF:3B:5E:5D:A0:05:8A:19:74:88:39:95:AF:44:C9:0B:48:8E:80
            X509v3 Authority Key Identifier: 
                keyid:2A:57:DD:DC:95:9D:B6:BA:44:25:5B:CC:C8:E7:DA:1E:31:E1:E1:07
                DirName:/C=US/ST=California/L=San Francisco/O=Mocana Corporation/OU=Engineering/CN=ssltest.mocana.com/emailAddress=iot@mocana.com
                serial:10:00:01

            X509v3 Basic Constraints: 
                CA:TRUE
            X509v3 Key Usage: 
                Digital Signature, Key Encipherment, Certificate Sign, CRL Sign
            X509v3 Subject Alternative Name: 
                DNS:v3_ca.mocana.com
            X509v3 CRL Distribution Points: 

                Full Name:
                  URI:http://127.0.0.1:9000/mocana.crl

    Signature Algorithm: sha256WithRSAEncryption
         10:54:74:56:0e:2d:2b:77:26:f0:9d:01:c0:74:bf:87:c2:48:
         2c:2e:af:26:6f:88:5a:e3:74:26:87:f1:b6:77:c9:7a:52:f1:
         1e:c6:d6:3d:09:c4:77:e6:f0:72:57:e1:d1:cc:24:93:0b:fe:
         39:4d:97:01:1b:3b:4e:d6:94:d4:04:e5:39:9a:d4:49:60:91:
         26:a9:5b:49:d2:2a:dc:58:4f:05:05:0d:e5:e3:b5:0b:be:87:
         64:23:68:83:ba:35:8d:c6:ed:dc:70:11:b1:d0:9e:86:aa:c9:
         30:9d:f7:07:94:78:fd:bb:78:75:d7:1d:d1:cc:71:61:c4:13:
         8a:c3:a8:2c:1d:ca:9f:44:16:b4:3a:44:68:51:2f:a5:39:bb:
         7b:b0:25:4f:5f:47:30:38:7d:6d:5a:b5:b3:15:e4:60:68:39:
         8e:f2:89:3b:99:bd:53:a8:a3:4b:1f:e6:32:97:15:4b:36:cd:
         9e:83:f4:01:be:e6:8a:a2:36:11:45:3d:a3:5b:69:e7:0c:b8:
         a3:cc:ad:2d:73:1b:00:cb:88:a0:bd:ff:3c:d4:4d:11:ec:e9:
         9f:53:b1:fa:4e:e3:0c:6d:64:ce:7a:9b:68:e8:c1:b7:d0:ef:
         7c:07:d6:96:8c:29:95:06:61:0c:ec:58:bc:81:49:24:31:5a:
         96:7a:e5:34
-----BEGIN CERTIFICATE-----
MIIEfjCCA2agAwIBAgIDEAACMA0GCSqGSIb3DQEBCwUAMEsxCzAJBgNVBAYTAlVT
MRMwEQYDVQQIDApDYWxpZm9ybmlhMQ8wDQYDVQQKDAZNb2NhbmExFjAUBgNVBAMM
DUludGVybWVkaWF0ZTEwHhcNMTYwMzEwMjI1NTUxWhcNNDMwNzI3MjI1NTUxWjBL
MQswCQYDVQQGEwJVUzETMBEGA1UECAwKQ2FsaWZvcm5pYTEPMA0GA1UECgwGTW9j
YW5hMRYwFAYDVQQDDA1JbnRlcm1lZGlhdGUyMIIBIjANBgkqhkiG9w0BAQEFAAOC
AQ8AMIIBCgKCAQEAn9HdL33USvDyKO66debAo5Uc79oLy5Eq86Z5B+7oULyks/dF
/VFRuZ2BxAfKS5aPOTjNxFmYuXAZgD26dAVzY9l+TQfCuuHPbg/pz/1W9cKybyTs
MZmZPe4k1GjP2mYRtzZd3MUV839Bt/7Gi8qeget5I1zpk69t3ucX+DxtU+78Hdhc
yX3OqD524GL8w7kn4tHVsshWyW8GSDqbqt0RXCeJM42XSovAzZtnbLGbgsx0SVWx
eDt90zpECQ9De/EQrR4KYOeLql4wjbAJE5Wgc9KroVR4VEKy5VsF7KSn/h7htnt2
MPxpeccM7NKo3GUiHLr9YH/IYu7xWHO2Hnl30wIDAQABo4IBaTCCAWUwHQYDVR0O
BBYEFFzfO15doAWKGXSIOZWvRMkLSI6AMIHYBgNVHSMEgdAwgc2AFCpX3dyVnba6
RCVbzMjn2h4x4eEHoYGvpIGsMIGpMQswCQYDVQQGEwJVUzETMBEGA1UECAwKQ2Fs
aWZvcm5pYTEWMBQGA1UEBwwNU2FuIEZyYW5jaXNjbzEbMBkGA1UECgwSTW9jYW5h
IENvcnBvcmF0aW9uMRQwEgYDVQQLDAtFbmdpbmVlcmluZzEbMBkGA1UEAwwSc3Ns
dGVzdC5tb2NhbmEuY29tMR0wGwYJKoZIhvcNAQkBFg5pb3RAbW9jYW5hLmNvbYID
EAABMAwGA1UdEwQFMAMBAf8wCwYDVR0PBAQDAgGmMBsGA1UdEQQUMBKCEHYzX2Nh
Lm1vY2FuYS5jb20wMQYDVR0fBCowKDAmoCSgIoYgaHR0cDovLzEyNy4wLjAuMTo5
MDAwL21vY2FuYS5jcmwwDQYJKoZIhvcNAQELBQADggEBABBUdFYOLSt3JvCdAcB0
v4fCSCwuryZviFrjdCaH8bZ3yXpS8R7G1j0JxHfm8HJX4dHMJJML/jlNlwEbO07W
lNQE5Tma1ElgkSapW0nSKtxYTwUFDeXjtQu+h2QjaIO6NY3G7dxwEbHQnoaqyTCd
9weUeP27eHXXHdHMcWHEE4rDqCwdyp9EFrQ6RGhRL6U5u3uwJU9fRzA4fW1atbMV
5GBoOY7yiTuZvVOoo0sf5jKXFUs2zZ6D9AG+5oqiNhFFPaNbaecMuKPMrS1zGwDL
iKC9/zzUTRHs6Z9TsfpO4wxtZM56m2jowbfQ73wH1paMKZUGYQzsWLyBSSQxWpZ6
5TQ=
-----END CERTIFICATE-----
