Certificate:
    Data:
        Version: 3 (0x2)
        Serial Number: 1048577 (0x100001)
    Signature Algorithm: sha256WithRSAEncryption
        Issuer: C=US, ST=California, L=San Francisco, O=Mocana Corporation, OU=Engineering, CN=ssltest.mocana.com/emailAddress=iot@mocana.com
        Validity
            Not Before: Mar 10 22:51:52 2016 GMT
            Not After : Jul 27 22:51:52 2043 GMT
        Subject: C=US, ST=California, O=Mocana, CN=Intermediate1
        Subject Public Key Info:
            Public Key Algorithm: rsaEncryption
                Public-Key: (2048 bit)
                Modulus:
                    00:91:19:52:7b:ee:27:cf:de:73:a8:20:f9:40:e2:
                    7d:24:28:4a:ee:b8:59:f8:f0:2f:37:79:3e:8c:ca:
                    e4:a0:60:c9:88:9a:fa:c1:95:c3:39:3e:59:6b:e4:
                    34:ee:44:6e:5d:5e:34:a6:c8:3b:a9:04:f0:28:e1:
                    de:57:2e:02:c1:1f:ca:1e:90:ac:0b:36:7e:2e:62:
                    45:a6:dc:68:6e:5e:8a:28:67:d2:7c:47:4f:d3:6e:
                    8b:27:7e:66:77:49:c5:31:52:b7:71:aa:71:67:8f:
                    6d:a2:12:8e:31:da:7e:0f:ec:cd:73:4e:50:96:9d:
                    52:58:3c:d3:dc:bc:4b:2e:89:53:c7:37:f0:c0:61:
                    f1:68:61:60:b0:44:2b:ce:e0:fa:65:29:45:25:11:
                    28:d6:c4:b1:51:a1:6b:4a:de:0d:63:0a:d1:ba:44:
                    ae:44:61:26:91:5a:ba:ee:12:d4:9c:b1:6b:73:ca:
                    11:d7:b4:d7:56:d1:34:ee:03:ff:98:d3:2a:6c:a5:
                    55:fd:61:76:ac:c1:c4:50:f9:f9:25:94:67:65:b8:
                    bf:ad:45:40:23:fe:72:54:9e:39:98:14:17:06:3e:
                    63:90:b3:03:44:1f:1e:a5:44:39:0c:9e:b6:df:2b:
                    1f:fc:6b:d4:e2:65:db:10:06:66:ff:a5:19:f5:11:
                    76:8b
                Exponent: 65537 (0x10001)
        X509v3 extensions:
            X509v3 Subject Key Identifier: 
                2A:57:DD:DC:95:9D:B6:BA:44:25:5B:CC:C8:E7:DA:1E:31:E1:E1:07
            X509v3 Authority Key Identifier: 
                keyid:BF:94:9C:19:B7:AD:4D:11:DB:21:7B:01:AD:84:8D:9F:3F:D5:59:1C
                DirName:/C=US/ST=California/L=San Francisco/O=Mocana Corporation/OU=Engineering/CN=ssltest.mocana.com/emailAddress=iot@mocana.com
                serial:D4:7D:E2:F6:02:41:28:74

            X509v3 Basic Constraints: 
                CA:TRUE
            X509v3 Key Usage: 
                Digital Signature, Key Encipherment, Certificate Sign, CRL Sign
            X509v3 Subject Alternative Name: 
                DNS:v3_ca.mocana.com
            X509v3 CRL Distribution Points: 

                Full Name:
                  URI:http://127.0.0.1:9000/mocana.crl

    Signature Algorithm: sha256WithRSAEncryption
         bf:d7:23:0e:4f:08:23:7a:ee:86:0d:54:45:09:17:6f:e7:1f:
         67:2d:d0:aa:d5:fe:a3:12:8a:eb:0d:5c:82:7b:94:db:f8:c3:
         7f:c5:26:31:13:a8:69:b5:3f:ac:bf:82:01:d4:95:e3:f5:10:
         50:be:78:eb:e5:11:45:e2:32:f9:9b:3e:1a:04:04:c7:48:ce:
         fd:cc:13:fb:8b:af:9d:f9:4c:ab:dc:48:d8:ac:e0:7f:07:e6:
         68:d8:37:19:2d:de:c8:1d:67:98:27:39:c4:d9:93:2f:44:4c:
         d7:81:63:b0:6c:c2:0c:2d:9b:fb:50:f0:4f:18:1c:62:15:20:
         96:79:84:29:3c:96:a0:23:f2:5c:77:c3:0e:fe:84:b6:5d:0d:
         8e:39:a5:9d:ff:be:dd:8d:c7:4d:52:b0:df:5c:96:ff:5b:38:
         19:f8:b6:d3:0e:fe:49:c4:2f:4d:b7:a5:e7:2d:13:60:ae:29:
         85:58:0d:e6:ef:bc:9b:ec:7d:1e:85:d7:17:38:b1:a8:e8:f6:
         76:e6:15:a2:bd:31:95:91:5f:8d:81:92:f8:56:e6:49:a3:82:
         54:d6:62:0b:94:47:03:55:43:71:22:bb:8d:59:dd:8a:88:09:
         45:3b:87:46:89:e0:ca:5d:00:ba:6c:d2:ed:41:d2:2d:91:ca:
         0e:92:ed:c6
-----BEGIN CERTIFICATE-----
MIIE4zCCA8ugAwIBAgIDEAABMA0GCSqGSIb3DQEBCwUAMIGpMQswCQYDVQQGEwJV
UzETMBEGA1UECAwKQ2FsaWZvcm5pYTEWMBQGA1UEBwwNU2FuIEZyYW5jaXNjbzEb
MBkGA1UECgwSTW9jYW5hIENvcnBvcmF0aW9uMRQwEgYDVQQLDAtFbmdpbmVlcmlu
ZzEbMBkGA1UEAwwSc3NsdGVzdC5tb2NhbmEuY29tMR0wGwYJKoZIhvcNAQkBFg5p
b3RAbW9jYW5hLmNvbTAeFw0xNjAzMTAyMjUxNTJaFw00MzA3MjcyMjUxNTJaMEsx
CzAJBgNVBAYTAlVTMRMwEQYDVQQIDApDYWxpZm9ybmlhMQ8wDQYDVQQKDAZNb2Nh
bmExFjAUBgNVBAMMDUludGVybWVkaWF0ZTEwggEiMA0GCSqGSIb3DQEBAQUAA4IB
DwAwggEKAoIBAQCRGVJ77ifP3nOoIPlA4n0kKEruuFn48C83eT6MyuSgYMmImvrB
lcM5Pllr5DTuRG5dXjSmyDupBPAo4d5XLgLBH8oekKwLNn4uYkWm3GhuXoooZ9J8
R0/TbosnfmZ3ScUxUrdxqnFnj22iEo4x2n4P7M1zTlCWnVJYPNPcvEsuiVPHN/DA
YfFoYWCwRCvO4PplKUUlESjWxLFRoWtK3g1jCtG6RK5EYSaRWrruEtScsWtzyhHX
tNdW0TTuA/+Y0ypspVX9YXaswcRQ+fkllGdluL+tRUAj/nJUnjmYFBcGPmOQswNE
Hx6lRDkMnrbfKx/8a9TiZdsQBmb/pRn1EXaLAgMBAAGjggFvMIIBazAdBgNVHQ4E
FgQUKlfd3JWdtrpEJVvMyOfaHjHh4Qcwgd4GA1UdIwSB1jCB04AUv5ScGbetTRHb
IXsBrYSNnz/VWRyhga+kgawwgakxCzAJBgNVBAYTAlVTMRMwEQYDVQQIDApDYWxp
Zm9ybmlhMRYwFAYDVQQHDA1TYW4gRnJhbmNpc2NvMRswGQYDVQQKDBJNb2NhbmEg
Q29ycG9yYXRpb24xFDASBgNVBAsMC0VuZ2luZWVyaW5nMRswGQYDVQQDDBJzc2x0
ZXN0Lm1vY2FuYS5jb20xHTAbBgkqhkiG9w0BCQEWDmlvdEBtb2NhbmEuY29tggkA
1H3i9gJBKHQwDAYDVR0TBAUwAwEB/zALBgNVHQ8EBAMCAaYwGwYDVR0RBBQwEoIQ
djNfY2EubW9jYW5hLmNvbTAxBgNVHR8EKjAoMCagJKAihiBodHRwOi8vMTI3LjAu
MC4xOjkwMDAvbW9jYW5hLmNybDANBgkqhkiG9w0BAQsFAAOCAQEAv9cjDk8II3ru
hg1URQkXb+cfZy3QqtX+oxKK6w1cgnuU2/jDf8UmMROoabU/rL+CAdSV4/UQUL54
6+URReIy+Zs+GgQEx0jO/cwT+4uvnflMq9xI2KzgfwfmaNg3GS3eyB1nmCc5xNmT
L0RM14FjsGzCDC2b+1DwTxgcYhUglnmEKTyWoCPyXHfDDv6Etl0Njjmlnf++3Y3H
TVKw31yW/1s4Gfi20w7+ScQvTbel5y0TYK4phVgN5u+8m+x9HoXXFzixqOj2duYV
or0xlZFfjYGS+FbmSaOCVNZiC5RHA1VDcSK7jVndiogJRTuHRongyl0AumzS7UHS
LZHKDpLtxg==
-----END CERTIFICATE-----
