Certificate:
    Data:
        Version: 3 (0x2)
        Serial Number: 1048581 (0x100005)
    Signature Algorithm: sha256WithRSAEncryption
        Issuer: C=US, ST=California, O=Mocana, CN=Intermediate2_1
        Validity
            Not Before: Mar 11 17:52:55 2016 GMT
            Not After : Jul 28 17:52:55 2043 GMT
        Subject: C=US, ST=California, O=Mocana, CN=Intermediate2_2
        Subject Public Key Info:
            Public Key Algorithm: rsaEncryption
                Public-Key: (2048 bit)
                Modulus:
                    00:f8:97:41:02:ee:83:0e:61:e7:e0:48:e6:4e:d6:
                    a9:43:4b:6d:84:65:3f:92:eb:c2:2c:dd:be:90:f4:
                    1e:5f:a1:ea:0a:dd:27:7b:67:8a:df:e8:ac:3f:3d:
                    fc:92:fe:d7:9b:60:f1:73:11:23:41:0c:89:1d:a9:
                    bc:8d:90:3c:b2:53:60:18:11:ec:c4:3b:9a:36:f4:
                    f7:f0:73:e5:23:45:4a:86:02:b6:ab:9f:79:79:74:
                    c9:a0:8f:6c:3b:54:10:25:4c:f6:69:40:81:a2:51:
                    1a:dd:0d:c8:79:34:ee:5a:c5:8b:ef:b0:31:75:ea:
                    ae:92:89:6c:70:6d:0b:f6:ff:5d:9f:da:ba:4f:c3:
                    36:4f:06:35:21:02:92:a7:d0:88:78:6b:61:86:3c:
                    c0:96:2a:56:2c:35:b8:ac:20:bd:3c:8d:27:de:fb:
                    06:47:e5:de:03:4c:3b:51:0c:23:b9:da:f2:55:83:
                    f0:13:42:5f:f0:4a:9b:0a:a0:27:40:f6:81:67:7a:
                    2b:00:d8:e2:7d:f6:7b:f0:06:6a:56:72:11:e1:bb:
                    c9:f2:b6:49:dd:db:09:a8:28:f5:16:cc:4a:57:f9:
                    54:c7:0d:35:e1:f2:91:6c:67:b0:ee:c5:e6:28:bb:
                    6b:a3:c9:38:bf:48:96:9e:a9:5c:b7:d8:ac:39:39:
                    e6:df
                Exponent: 65537 (0x10001)
        X509v3 extensions:
            X509v3 Subject Key Identifier: 
                A6:72:2B:D5:15:A2:C1:EF:9F:B9:77:66:84:A7:81:C3:E2:20:81:65
            X509v3 Authority Key Identifier: 
                keyid:47:F4:38:25:2B:B7:0C:E2:12:D3:4A:3A:39:94:24:E1:D2:0E:9E:2A
                DirName:/C=US/ST=California/L=San Francisco/O=Mocana Corporation/OU=Engineering/CN=ssltest.mocana.com/emailAddress=iot@mocana.com
                serial:10:00:04

            X509v3 Basic Constraints: 
                CA:TRUE, pathlen:1
            X509v3 Key Usage: 
                Digital Signature, Key Encipherment, Certificate Sign, CRL Sign
            X509v3 Subject Alternative Name: 
                DNS:v3_ca.mocana.com
            X509v3 CRL Distribution Points: 

                Full Name:
                  URI:http://127.0.0.1:9000/mocana.crl

    Signature Algorithm: sha256WithRSAEncryption
         43:e1:0f:08:17:16:b6:e3:35:2d:bb:42:9f:42:1b:7a:7d:b0:
         d3:9f:78:0f:00:94:84:b8:be:bd:58:ed:e2:a7:55:0e:75:8b:
         84:c7:70:02:e3:47:50:a5:f9:45:3a:8a:a4:21:93:e0:13:2c:
         57:e4:66:2e:9b:a6:99:d5:51:e8:7f:d8:fd:9e:f7:0f:7e:ea:
         3d:5e:65:b5:7e:7e:ea:4d:09:4b:36:64:5b:eb:7b:e2:59:44:
         08:ec:d7:21:30:f9:07:22:a1:b4:13:69:4f:21:f3:2b:da:ea:
         85:93:f2:06:9c:c7:f9:4b:a6:3c:80:eb:bf:03:e6:b3:bc:66:
         bd:54:53:a2:e7:36:15:f2:da:54:f2:db:8a:d5:bb:1d:e0:70:
         5e:5a:c1:18:52:c0:05:22:43:98:99:ca:86:01:32:d6:45:ff:
         c3:eb:11:97:1e:e1:64:5b:01:01:91:9b:64:82:bc:8c:14:2a:
         06:fe:ca:4f:c4:d0:43:c9:61:22:12:e3:54:e3:6d:f6:8d:e8:
         81:00:0d:26:15:40:07:9d:a3:7f:85:13:a6:04:17:0b:93:bb:
         45:b0:a2:3f:b6:56:f2:3d:b6:fc:3d:60:4f:49:30:14:87:24:
         12:f9:ac:ce:d8:2e:a7:61:0a:a9:62:2f:a7:2f:14:e5:90:1e:
         a7:81:32:57
-----BEGIN CERTIFICATE-----
MIIEhTCCA22gAwIBAgIDEAAFMA0GCSqGSIb3DQEBCwUAME0xCzAJBgNVBAYTAlVT
MRMwEQYDVQQIDApDYWxpZm9ybmlhMQ8wDQYDVQQKDAZNb2NhbmExGDAWBgNVBAMM
D0ludGVybWVkaWF0ZTJfMTAeFw0xNjAzMTExNzUyNTVaFw00MzA3MjgxNzUyNTVa
ME0xCzAJBgNVBAYTAlVTMRMwEQYDVQQIDApDYWxpZm9ybmlhMQ8wDQYDVQQKDAZN
b2NhbmExGDAWBgNVBAMMD0ludGVybWVkaWF0ZTJfMjCCASIwDQYJKoZIhvcNAQEB
BQADggEPADCCAQoCggEBAPiXQQLugw5h5+BI5k7WqUNLbYRlP5LrwizdvpD0Hl+h
6grdJ3tnit/orD89/JL+15tg8XMRI0EMiR2pvI2QPLJTYBgR7MQ7mjb09/Bz5SNF
SoYCtqufeXl0yaCPbDtUECVM9mlAgaJRGt0NyHk07lrFi++wMXXqrpKJbHBtC/b/
XZ/auk/DNk8GNSECkqfQiHhrYYY8wJYqViw1uKwgvTyNJ977Bkfl3gNMO1EMI7na
8lWD8BNCX/BKmwqgJ0D2gWd6KwDY4n32e/AGalZyEeG7yfK2Sd3bCago9RbMSlf5
VMcNNeHykWxnsO7F5ii7a6PJOL9Ilp6pXLfYrDk55t8CAwEAAaOCAWwwggFoMB0G
A1UdDgQWBBSmcivVFaLB75+5d2aEp4HD4iCBZTCB2AYDVR0jBIHQMIHNgBRH9Dgl
K7cM4hLTSjo5lCTh0g6eKqGBr6SBrDCBqTELMAkGA1UEBhMCVVMxEzARBgNVBAgM
CkNhbGlmb3JuaWExFjAUBgNVBAcMDVNhbiBGcmFuY2lzY28xGzAZBgNVBAoMEk1v
Y2FuYSBDb3Jwb3JhdGlvbjEUMBIGA1UECwwLRW5naW5lZXJpbmcxGzAZBgNVBAMM
EnNzbHRlc3QubW9jYW5hLmNvbTEdMBsGCSqGSIb3DQEJARYOaW90QG1vY2FuYS5j
b22CAxAABDAPBgNVHRMECDAGAQH/AgEBMAsGA1UdDwQEAwIBpjAbBgNVHREEFDAS
ghB2M19jYS5tb2NhbmEuY29tMDEGA1UdHwQqMCgwJqAkoCKGIGh0dHA6Ly8xMjcu
MC4wLjE6OTAwMC9tb2NhbmEuY3JsMA0GCSqGSIb3DQEBCwUAA4IBAQBD4Q8IFxa2
4zUtu0KfQht6fbDTn3gPAJSEuL69WO3ip1UOdYuEx3AC40dQpflFOoqkIZPgEyxX
5GYum6aZ1VHof9j9nvcPfuo9XmW1fn7qTQlLNmRb63viWUQI7NchMPkHIqG0E2lP
IfMr2uqFk/IGnMf5S6Y8gOu/A+azvGa9VFOi5zYV8tpU8tuK1bsd4HBeWsEYUsAF
IkOYmcqGATLWRf/D6xGXHuFkWwEBkZtkgryMFCoG/spPxNBDyWEiEuNU4232jeiB
AA0mFUAHnaN/hROmBBcLk7tFsKI/tlbyPbb8PWBPSTAUhyQS+azO2C6nYQqpYi+n
LxTlkB6ngTJX
-----END CERTIFICATE-----
